target datalayout = "e-m:e-p270:32:32-p271:32:32-p272:64:64-i64:64-i128:128-f80:128-n8:16:32:64-S128"
target triple = "x86_64-pc-linux-gnu"

; Function Attrs: nounwind uwtable
define hidden ptr @_cmsComputeInterpParams(ptr noundef %0, i32 noundef %1, i32 noundef %2, i32 noundef %3, ptr noundef %4, i32 noundef %5) #0 {
  %7 = alloca ptr, align 8
  %8 = alloca i32, align 4
  %9 = alloca i32, align 4
  %10 = alloca i32, align 4
  %11 = alloca ptr, align 8
  %12 = alloca i32, align 4
  %13 = alloca i32, align 4
  %14 = alloca [15 x i32], align 16
  store ptr %0, ptr %7, align 8
  store i32 %1, ptr %8, align 4
  store i32 %2, ptr %9, align 4
  store i32 %3, ptr %10, align 4
  store ptr %4, ptr %11, align 8
  store i32 %5, ptr %12, align 4
  store i32 0, ptr %13, align 4
  br label %15

15:                                               ; preds = %23, %6
  %16 = load i32, ptr %13, align 4
  %17 = icmp slt i32 %16, 15
  br i1 %17, label %18, label %26

18:                                               ; preds = %15
  %19 = load i32, ptr %8, align 4
  %20 = load i32, ptr %13, align 4
  %21 = sext i32 %20 to i64
  %22 = getelementptr inbounds [15 x i32], ptr %14, i64 0, i64 %21
  store i32 %19, ptr %22, align 4
  br label %23

23:                                               ; preds = %18
  %24 = load i32, ptr %13, align 4
  %25 = add nsw i32 %24, 1
  store i32 %25, ptr %13, align 4
  br label %15, !llvm.loop !9

26:                                               ; preds = %15
  %27 = load ptr, ptr %7, align 8
  %28 = getelementptr inbounds [15 x i32], ptr %14, i64 0, i64 0
  %29 = load i32, ptr %9, align 4
  %30 = load i32, ptr %10, align 4
  %31 = load ptr, ptr %11, align 8
  %32 = load i32, ptr %12, align 4
  %33 = call ptr @_cmsComputeInterpParamsEx(ptr noundef %27, ptr noundef %28, i32 noundef %29, i32 noundef %30, ptr noundef %31, i32 noundef %32)
  ret ptr %33
}