; Function Attrs: nounwind uwtable
define hidden ptr @_cmsComputeInterpParams(ptr noundef %0, i32 noundef %1, i32 noundef %2, i32 noundef %3, ptr noundef %4, i32 noundef %5) local_unnamed_addr #0 {
  %7 = alloca [15 x i32], align 16
  br label %8

8:                                                ; preds = %6, %8
  %indvars.iv = phi i64 [ 0, %6 ], [ %indvars.iv.next, %8 ]
  %9 = getelementptr inbounds [15 x i32], ptr %7, i64 0, i64 %indvars.iv
  store i32 %1, ptr %9, align 4
  %indvars.iv.next = add nuw nsw i64 %indvars.iv, 1
  %exitcond.not = icmp eq i64 %indvars.iv.next, 15
  br i1 %exitcond.not, label %10, label %8, !llvm.loop !9

10:                                               ; preds = %8
  %11 = call ptr @_cmsComputeInterpParamsEx(ptr noundef %0, ptr noundef nonnull %7, i32 noundef %2, i32 noundef %3, ptr noundef %4, i32 noundef %5)
  ret ptr %11
}